target datalayout = "e-m:e-p270:32:32-p271:32:32-p272:64:64-i64:64-i128:128-f80:128-n8:16:32:64-S128"
target triple = "x86_64-pc-linux-gnu"

@input_filename = external global ptr, align 8
@.str.4 = private unnamed_addr constant [12 x i8] c"\0A#line %d \22\00", align 1
@base_yylineno = external global i32, align 4
@.str.5 = private unnamed_addr constant [3 x i8] c"\22\0A\00", align 1
@.str.6 = private unnamed_addr constant [1 x i8] zeroinitializer, align 1

; Function Attrs: nounwind uwtable
define dso_local ptr @hashline_number() #0 {
  %1 = alloca ptr, align 8
  %2 = alloca ptr, align 8
  %3 = alloca ptr, align 8
  %4 = alloca ptr, align 8
  %5 = load ptr, ptr @input_filename, align 8
  %6 = icmp ne ptr %5, null
  br i1 %6, label %7, label %49

7:                                                ; preds = %0
  call void @llvm.lifetime.start.p0(i64 8, ptr %2) #5
  %8 = load ptr, ptr @input_filename, align 8
  %9 = call i64 @strlen(ptr noundef %8) #6
  %10 = mul i64 %9, 2
  %11 = add i64 121, %10
  %12 = call ptr @loc_alloc(i64 noundef %11)
  store ptr %12, ptr %2, align 8
  call void @llvm.lifetime.start.p0(i64 8, ptr %3) #5
  call void @llvm.lifetime.start.p0(i64 8, ptr %4) #5
  %13 = load ptr, ptr %2, align 8
  %14 = load i32, ptr @base_yylineno, align 4
  %15 = call i32 (ptr, ptr, ...) @pg_sprintf(ptr noundef %13, ptr noundef @.str.4, i32 noundef %14)
  %16 = load ptr, ptr @input_filename, align 8
  store ptr %16, ptr %3, align 8
  %17 = load ptr, ptr %2, align 8
  %18 = load ptr, ptr %2, align 8
  %19 = call i64 @strlen(ptr noundef %18) #6
  %20 = getelementptr inbounds nuw i8, ptr %17, i64 %19
  store ptr %20, ptr %4, align 8
  br label %21

21:                                               ; preds = %38, %7
  %22 = load ptr, ptr %3, align 8
  %23 = load i8, ptr %22, align 1
  %24 = icmp ne i8 %23, 0
  br i1 %24, label %25, label %44

25:                                               ; preds = %21
  %26 = load ptr, ptr %3, align 8
  %27 = load i8, ptr %26, align 1
  %28 = sext i8 %27 to i32
  %29 = icmp eq i32 %28, 92
  br i1 %29, label %35, label %30

30:                                               ; preds = %25
  %31 = load ptr, ptr %3, align 8
  %32 = load i8, ptr %31, align 1
  %33 = sext i8 %32 to i32
  %34 = icmp eq i32 %33, 34
  br i1 %34, label %35, label %38

35:                                               ; preds = %30, %25
  %36 = load ptr, ptr %4, align 8
  %37 = getelementptr inbounds nuw i8, ptr %36, i32 1
  store ptr %37, ptr %4, align 8
  store i8 92, ptr %36, align 1
  br label %38

38:                                               ; preds = %35, %30
  %39 = load ptr, ptr %3, align 8
  %40 = getelementptr inbounds nuw i8, ptr %39, i32 1
  store ptr %40, ptr %3, align 8
  %41 = load i8, ptr %39, align 1
  %42 = load ptr, ptr %4, align 8
  %43 = getelementptr inbounds nuw i8, ptr %42, i32 1
  store ptr %43, ptr %4, align 8
  store i8 %41, ptr %42, align 1
  br label %21, !llvm.loop !4

44:                                               ; preds = %21
  %45 = load ptr, ptr %4, align 8
  store i8 0, ptr %45, align 1
  %46 = load ptr, ptr %4, align 8
  %47 = call ptr @strcat(ptr noundef %46, ptr noundef @.str.5) #5
  %48 = load ptr, ptr %2, align 8
  store ptr %48, ptr %1, align 8
  call void @llvm.lifetime.end.p0(i64 8, ptr %4) #5
  call void @llvm.lifetime.end.p0(i64 8, ptr %3) #5
  call void @llvm.lifetime.end.p0(i64 8, ptr %2) #5
  br label %50

49:                                               ; preds = %0
  store ptr @.str.6, ptr %1, align 8
  br label %50

50:                                               ; preds = %49, %44
  %51 = load ptr, ptr %1, align 8
  ret ptr %51
}