; Function Attrs: nounwind uwtable
define dso_local noundef ptr @hashline_number() local_unnamed_addr #0 {
  %1 = load ptr, ptr @input_filename, align 8
  %.not = icmp eq ptr %1, null
  br i1 %.not, label %21, label %2

2:                                                ; preds = %0
  %3 = tail call i64 @strlen(ptr noundef nonnull dereferenceable(1) %1) #8
  %4 = shl i64 %3, 1
  %5 = add i64 %4, 121
  %6 = tail call ptr @loc_alloc(i64 noundef %5) #7
  %7 = load i32, ptr @base_yylineno, align 4
  %8 = tail call i32 (ptr, ptr, ...) @pg_sprintf(ptr noundef %6, ptr noundef nonnull @.str.4, i32 noundef %7) #7
  %9 = load ptr, ptr @input_filename, align 8
  %10 = tail call i64 @strlen(ptr noundef nonnull dereferenceable(1) %6) #8
  %11 = getelementptr inbounds nuw i8, ptr %6, i64 %10
  br label %12

12:                                               ; preds = %16, %2
  %.013 = phi ptr [ %9, %2 ], [ %18, %16 ]
  %.0 = phi ptr [ %11, %2 ], [ %19, %16 ]
  %13 = load i8, ptr %.013, align 1
  switch i8 %13, label %16 [
    i8 0, label %20
    i8 92, label %14
    i8 34, label %14
  ]

14:                                               ; preds = %12, %12
  %15 = getelementptr inbounds nuw i8, ptr %.0, i64 1
  store i8 92, ptr %.0, align 1
  %.pre = load i8, ptr %.013, align 1
  br label %16

16:                                               ; preds = %12, %14
  %17 = phi i8 [ %.pre, %14 ], [ %13, %12 ]
  %.1 = phi ptr [ %15, %14 ], [ %.0, %12 ]
  %18 = getelementptr inbounds nuw i8, ptr %.013, i64 1
  %19 = getelementptr inbounds nuw i8, ptr %.1, i64 1
  store i8 %17, ptr %.1, align 1
  br label %12, !llvm.loop !4

20:                                               ; preds = %12
  store i8 0, ptr %.0, align 1
  %strlen = tail call i64 @strlen(ptr nonnull dereferenceable(1) %.0)
  %endptr = getelementptr inbounds i8, ptr %.0, i64 %strlen
  tail call void @llvm.memcpy.p0.p0.i64(ptr noundef nonnull align 1 dereferenceable(3) %endptr, ptr noundef nonnull align 1 dereferenceable(3) @.str.5, i64 3, i1 false)
  br label %21

21:                                               ; preds = %0, %20
  %.014 = phi ptr [ %6, %20 ], [ @.str.6, %0 ]
  ret ptr %.014
}